target datalayout = "e-m:e-p270:32:32-p271:32:32-p272:64:64-i64:64-i128:128-f80:128-n8:16:32:64-S128"
target triple = "x86_64-pc-linux-gnu"

%struct.SurfaceDataRasInfo = type { %struct.SurfaceDataBounds, ptr, i32, i32, i32, i32, ptr, ptr, ptr, ptr, ptr, ptr, i32, %union.anon.0 }
%struct.SurfaceDataBounds = type { i32, i32, i32, i32 }
%union.anon.0 = type { ptr, [56 x i8] }
%struct.ImageRef = type { ptr, ptr, i32, i32, i32, i32, i32, i32 }

@mul8table = external global [256 x [256 x i8]], align 16

; Function Attrs: nounwind uwtable
define hidden void @Ushort555RgbxDrawGlyphListAA(ptr noundef %0, ptr noundef %1, i32 noundef %2, i32 noundef %3, i32 noundef %4, i32 noundef %5, i32 noundef %6, i32 noundef %7, i32 noundef %8, ptr noundef %9, ptr noundef %10) #1 {
  %12 = alloca ptr, align 8
  %13 = alloca ptr, align 8
  %14 = alloca i32, align 4
  %15 = alloca i32, align 4
  %16 = alloca i32, align 4
  %17 = alloca i32, align 4
  %18 = alloca i32, align 4
  %19 = alloca i32, align 4
  %20 = alloca i32, align 4
  %21 = alloca ptr, align 8
  %22 = alloca ptr, align 8
  %23 = alloca i32, align 4
  %24 = alloca i32, align 4
  %25 = alloca ptr, align 8
  %26 = alloca i32, align 4
  %27 = alloca i32, align 4
  %28 = alloca i32, align 4
  %29 = alloca i32, align 4
  %30 = alloca ptr, align 8
  %31 = alloca i32, align 4
  %32 = alloca i32, align 4
  %33 = alloca i32, align 4
  %34 = alloca i32, align 4
  %35 = alloca i32, align 4
  %36 = alloca i32, align 4
  %37 = alloca i32, align 4
  %38 = alloca i32, align 4
  %39 = alloca i32, align 4
  %40 = alloca i32, align 4
  %41 = alloca i32, align 4
  %42 = alloca i32, align 4
  %43 = alloca i32, align 4
  %44 = alloca i16, align 2
  store ptr %0, ptr %12, align 8
  store ptr %1, ptr %13, align 8
  store i32 %2, ptr %14, align 4
  store i32 %3, ptr %15, align 4
  store i32 %4, ptr %16, align 4
  store i32 %5, ptr %17, align 4
  store i32 %6, ptr %18, align 4
  store i32 %7, ptr %19, align 4
  store i32 %8, ptr %20, align 4
  store ptr %9, ptr %21, align 8
  store ptr %10, ptr %22, align 8
  %45 = load ptr, ptr %12, align 8
  %46 = getelementptr inbounds %struct.SurfaceDataRasInfo, ptr %45, i32 0, i32 4
  %47 = load i32, ptr %46, align 8
  store i32 %47, ptr %24, align 4
  br label %48

48:                                               ; preds = %11
  %49 = load i32, ptr %16, align 4
  %50 = and i32 %49, 255
  store i32 %50, ptr %29, align 4
  %51 = load i32, ptr %16, align 4
  %52 = ashr i32 %51, 8
  %53 = and i32 %52, 255
  store i32 %53, ptr %28, align 4
  %54 = load i32, ptr %16, align 4
  %55 = ashr i32 %54, 16
  %56 = and i32 %55, 255
  store i32 %56, ptr %27, align 4
  %57 = load i32, ptr %16, align 4
  %58 = ashr i32 %57, 24
  %59 = and i32 %58, 255
  store i32 %59, ptr %26, align 4
  br label %60

60:                                               ; preds = %48
  store i32 0, ptr %23, align 4
  br label %61

61:                                               ; preds = %332, %60
  %62 = load i32, ptr %23, align 4
  %63 = load i32, ptr %14, align 4
  %64 = icmp slt i32 %62, %63
  br i1 %64, label %65, label %335

65:                                               ; preds = %61
  %66 = load ptr, ptr %13, align 8
  %67 = load i32, ptr %23, align 4
  %68 = sext i32 %67 to i64
  %69 = getelementptr inbounds %struct.ImageRef, ptr %66, i64 %68
  %70 = getelementptr inbounds %struct.ImageRef, ptr %69, i32 0, i32 1
  %71 = load ptr, ptr %70, align 8
  store ptr %71, ptr %30, align 8
  %72 = load ptr, ptr %30, align 8
  %73 = icmp ne ptr %72, null
  br i1 %73, label %75, label %74

74:                                               ; preds = %65
  br label %332

75:                                               ; preds = %65
  %76 = load ptr, ptr %13, align 8
  %77 = load i32, ptr %23, align 4
  %78 = sext i32 %77 to i64
  %79 = getelementptr inbounds %struct.ImageRef, ptr %76, i64 %78
  %80 = getelementptr inbounds %struct.ImageRef, ptr %79, i32 0, i32 2
  %81 = load i32, ptr %80, align 8
  store i32 %81, ptr %31, align 4
  %82 = load ptr, ptr %13, align 8
  %83 = load i32, ptr %23, align 4
  %84 = sext i32 %83 to i64
  %85 = getelementptr inbounds %struct.ImageRef, ptr %82, i64 %84
  %86 = getelementptr inbounds %struct.ImageRef, ptr %85, i32 0, i32 6
  %87 = load i32, ptr %86, align 8
  store i32 %87, ptr %32, align 4
  %88 = load ptr, ptr %13, align 8
  %89 = load i32, ptr %23, align 4
  %90 = sext i32 %89 to i64
  %91 = getelementptr inbounds %struct.ImageRef, ptr %88, i64 %90
  %92 = getelementptr inbounds %struct.ImageRef, ptr %91, i32 0, i32 7
  %93 = load i32, ptr %92, align 4
  store i32 %93, ptr %33, align 4
  %94 = load ptr, ptr %13, align 8
  %95 = load i32, ptr %23, align 4
  %96 = sext i32 %95 to i64
  %97 = getelementptr inbounds %struct.ImageRef, ptr %94, i64 %96
  %98 = getelementptr inbounds %struct.ImageRef, ptr %97, i32 0, i32 4
  %99 = load i32, ptr %98, align 8
  store i32 %99, ptr %34, align 4
  %100 = load ptr, ptr %13, align 8
  %101 = load i32, ptr %23, align 4
  %102 = sext i32 %101 to i64
  %103 = getelementptr inbounds %struct.ImageRef, ptr %100, i64 %102
  %104 = getelementptr inbounds %struct.ImageRef, ptr %103, i32 0, i32 5
  %105 = load i32, ptr %104, align 4
  store i32 %105, ptr %35, align 4
  %106 = load i32, ptr %32, align 4
  %107 = load i32, ptr %34, align 4
  %108 = add nsw i32 %106, %107
  store i32 %108, ptr %36, align 4
  %109 = load i32, ptr %33, align 4
  %110 = load i32, ptr %35, align 4
  %111 = add nsw i32 %109, %110
  store i32 %111, ptr %37, align 4
  %112 = load i32, ptr %32, align 4
  %113 = load i32, ptr %17, align 4
  %114 = icmp slt i32 %112, %113
  br i1 %114, label %115, label %124

115:                                              ; preds = %75
  %116 = load i32, ptr %17, align 4
  %117 = load i32, ptr %32, align 4
  %118 = sub nsw i32 %116, %117
  %119 = mul nsw i32 %118, 1
  %120 = load ptr, ptr %30, align 8
  %121 = sext i32 %119 to i64
  %122 = getelementptr inbounds i8, ptr %120, i64 %121
  store ptr %122, ptr %30, align 8
  %123 = load i32, ptr %17, align 4
  store i32 %123, ptr %32, align 4
  br label %124

124:                                              ; preds = %115, %75
  %125 = load i32, ptr %33, align 4
  %126 = load i32, ptr %18, align 4
  %127 = icmp slt i32 %125, %126
  br i1 %127, label %128, label %138

128:                                              ; preds = %124
  %129 = load i32, ptr %18, align 4
  %130 = load i32, ptr %33, align 4
  %131 = sub nsw i32 %129, %130
  %132 = load i32, ptr %31, align 4
  %133 = mul nsw i32 %131, %132
  %134 = load ptr, ptr %30, align 8
  %135 = sext i32 %133 to i64
  %136 = getelementptr inbounds i8, ptr %134, i64 %135
  store ptr %136, ptr %30, align 8
  %137 = load i32, ptr %18, align 4
  store i32 %137, ptr %33, align 4
  br label %138

138:                                              ; preds = %128, %124
  %139 = load i32, ptr %36, align 4
  %140 = load i32, ptr %19, align 4
  %141 = icmp sgt i32 %139, %140
  br i1 %141, label %142, label %144

142:                                              ; preds = %138
  %143 = load i32, ptr %19, align 4
  store i32 %143, ptr %36, align 4
  br label %144

144:                                              ; preds = %142, %138
  %145 = load i32, ptr %37, align 4
  %146 = load i32, ptr %20, align 4
  %147 = icmp sgt i32 %145, %146
  br i1 %147, label %148, label %150

148:                                              ; preds = %144
  %149 = load i32, ptr %20, align 4
  store i32 %149, ptr %37, align 4
  br label %150

150:                                              ; preds = %148, %144
  %151 = load i32, ptr %36, align 4
  %152 = load i32, ptr %32, align 4
  %153 = icmp sle i32 %151, %152
  br i1 %153, label %158, label %154

154:                                              ; preds = %150
  %155 = load i32, ptr %37, align 4
  %156 = load i32, ptr %33, align 4
  %157 = icmp sle i32 %155, %156
  br i1 %157, label %158, label %159

158:                                              ; preds = %154, %150
  br label %332

159:                                              ; preds = %154
  %160 = load i32, ptr %36, align 4
  %161 = load i32, ptr %32, align 4
  %162 = sub nsw i32 %160, %161
  store i32 %162, ptr %34, align 4
  %163 = load i32, ptr %37, align 4
  %164 = load i32, ptr %33, align 4
  %165 = sub nsw i32 %163, %164
  store i32 %165, ptr %35, align 4
  %166 = load ptr, ptr %12, align 8
  %167 = getelementptr inbounds %struct.SurfaceDataRasInfo, ptr %166, i32 0, i32 1
  %168 = load ptr, ptr %167, align 8
  %169 = ptrtoint ptr %168 to i64
  %170 = load i32, ptr %33, align 4
  %171 = sext i32 %170 to i64
  %172 = load i32, ptr %24, align 4
  %173 = sext i32 %172 to i64
  %174 = mul nsw i64 %171, %173
  %175 = load i32, ptr %32, align 4
  %176 = sext i32 %175 to i64
  %177 = mul nsw i64 %176, 2
  %178 = add nsw i64 %174, %177
  %179 = add nsw i64 %169, %178
  %180 = inttoptr i64 %179 to ptr
  store ptr %180, ptr %25, align 8
  br label %181

181:                                              ; preds = %327, %159
  store i32 0, ptr %38, align 4
  br label %182

182:                                              ; preds = %311, %181
  br label %183

183:                                              ; preds = %182
  %184 = load ptr, ptr %30, align 8
  %185 = load i32, ptr %38, align 4
  %186 = sext i32 %185 to i64
  %187 = getelementptr inbounds i8, ptr %184, i64 %186
  %188 = load i8, ptr %187, align 1
  %189 = zext i8 %188 to i32
  store i32 %189, ptr %42, align 4
  %190 = load i32, ptr %42, align 4
  %191 = icmp ne i32 %190, 0
  br i1 %191, label %192, label %309

192:                                              ; preds = %183
  %193 = load i32, ptr %42, align 4
  %194 = icmp slt i32 %193, 255
  br i1 %194, label %195, label %301

195:                                              ; preds = %192
  %196 = load i32, ptr %42, align 4
  %197 = sub nsw i32 255, %196
  store i32 %197, ptr %43, align 4
  br label %198

198:                                              ; preds = %195
  %199 = load ptr, ptr %25, align 8
  %200 = load i32, ptr %38, align 4
  %201 = sext i32 %200 to i64
  %202 = getelementptr inbounds i16, ptr %199, i64 %201
  %203 = load i16, ptr %202, align 2
  store i16 %203, ptr %44, align 2
  %204 = load i16, ptr %44, align 2
  %205 = zext i16 %204 to i32
  %206 = ashr i32 %205, 11
  %207 = and i32 %206, 31
  store i32 %207, ptr %39, align 4
  %208 = load i32, ptr %39, align 4
  %209 = shl i32 %208, 3
  %210 = load i32, ptr %39, align 4
  %211 = ashr i32 %210, 2
  %212 = or i32 %209, %211
  store i32 %212, ptr %39, align 4
  %213 = load i16, ptr %44, align 2
  %214 = zext i16 %213 to i32
  %215 = ashr i32 %214, 6
  %216 = and i32 %215, 31
  store i32 %216, ptr %40, align 4
  %217 = load i32, ptr %40, align 4
  %218 = shl i32 %217, 3
  %219 = load i32, ptr %40, align 4
  %220 = ashr i32 %219, 2
  %221 = or i32 %218, %220
  store i32 %221, ptr %40, align 4
  %222 = load i16, ptr %44, align 2
  %223 = zext i16 %222 to i32
  %224 = ashr i32 %223, 1
  %225 = and i32 %224, 31
  store i32 %225, ptr %41, align 4
  %226 = load i32, ptr %41, align 4
  %227 = shl i32 %226, 3
  %228 = load i32, ptr %41, align 4
  %229 = ashr i32 %228, 2
  %230 = or i32 %227, %229
  store i32 %230, ptr %41, align 4
  br label %231

231:                                              ; preds = %198
  br label %232

232:                                              ; preds = %231
  %233 = load i32, ptr %43, align 4
  %234 = sext i32 %233 to i64
  %235 = getelementptr inbounds [256 x [256 x i8]], ptr @mul8table, i64 0, i64 %234
  %236 = load i32, ptr %39, align 4
  %237 = sext i32 %236 to i64
  %238 = getelementptr inbounds [256 x i8], ptr %235, i64 0, i64 %237
  %239 = load i8, ptr %238, align 1
  %240 = zext i8 %239 to i32
  %241 = load i32, ptr %42, align 4
  %242 = sext i32 %241 to i64
  %243 = getelementptr inbounds [256 x [256 x i8]], ptr @mul8table, i64 0, i64 %242
  %244 = load i32, ptr %27, align 4
  %245 = sext i32 %244 to i64
  %246 = getelementptr inbounds [256 x i8], ptr %243, i64 0, i64 %245
  %247 = load i8, ptr %246, align 1
  %248 = zext i8 %247 to i32
  %249 = add nsw i32 %240, %248
  store i32 %249, ptr %39, align 4
  %250 = load i32, ptr %43, align 4
  %251 = sext i32 %250 to i64
  %252 = getelementptr inbounds [256 x [256 x i8]], ptr @mul8table, i64 0, i64 %251
  %253 = load i32, ptr %40, align 4
  %254 = sext i32 %253 to i64
  %255 = getelementptr inbounds [256 x i8], ptr %252, i64 0, i64 %254
  %256 = load i8, ptr %255, align 1
  %257 = zext i8 %256 to i32
  %258 = load i32, ptr %42, align 4
  %259 = sext i32 %258 to i64
  %260 = getelementptr inbounds [256 x [256 x i8]], ptr @mul8table, i64 0, i64 %259
  %261 = load i32, ptr %28, align 4
  %262 = sext i32 %261 to i64
  %263 = getelementptr inbounds [256 x i8], ptr %260, i64 0, i64 %262
  %264 = load i8, ptr %263, align 1
  %265 = zext i8 %264 to i32
  %266 = add nsw i32 %257, %265
  store i32 %266, ptr %40, align 4
  %267 = load i32, ptr %43, align 4
  %268 = sext i32 %267 to i64
  %269 = getelementptr inbounds [256 x [256 x i8]], ptr @mul8table, i64 0, i64 %268
  %270 = load i32, ptr %41, align 4
  %271 = sext i32 %270 to i64
  %272 = getelementptr inbounds [256 x i8], ptr %269, i64 0, i64 %271
  %273 = load i8, ptr %272, align 1
  %274 = zext i8 %273 to i32
  %275 = load i32, ptr %42, align 4
  %276 = sext i32 %275 to i64
  %277 = getelementptr inbounds [256 x [256 x i8]], ptr @mul8table, i64 0, i64 %276
  %278 = load i32, ptr %29, align 4
  %279 = sext i32 %278 to i64
  %280 = getelementptr inbounds [256 x i8], ptr %277, i64 0, i64 %279
  %281 = load i8, ptr %280, align 1
  %282 = zext i8 %281 to i32
  %283 = add nsw i32 %274, %282
  store i32 %283, ptr %41, align 4
  br label %284

284:                                              ; preds = %232
  %285 = load i32, ptr %39, align 4
  %286 = ashr i32 %285, 3
  %287 = shl i32 %286, 11
  %288 = load i32, ptr %40, align 4
  %289 = ashr i32 %288, 3
  %290 = shl i32 %289, 6
  %291 = or i32 %287, %290
  %292 = load i32, ptr %41, align 4
  %293 = ashr i32 %292, 3
  %294 = shl i32 %293, 1
  %295 = or i32 %291, %294
  %296 = trunc i32 %295 to i16
  %297 = load ptr, ptr %25, align 8
  %298 = load i32, ptr %38, align 4
  %299 = sext i32 %298 to i64
  %300 = getelementptr inbounds i16, ptr %297, i64 %299
  store i16 %296, ptr %300, align 2
  br label %308

301:                                              ; preds = %192
  %302 = load i32, ptr %15, align 4
  %303 = trunc i32 %302 to i16
  %304 = load ptr, ptr %25, align 8
  %305 = load i32, ptr %38, align 4
  %306 = sext i32 %305 to i64
  %307 = getelementptr inbounds i16, ptr %304, i64 %306
  store i16 %303, ptr %307, align 2
  br label %308

308:                                              ; preds = %301, %284
  br label %309

309:                                              ; preds = %308, %183
  br label %310

310:                                              ; preds = %309
  br label %311

311:                                              ; preds = %310
  %312 = load i32, ptr %38, align 4
  %313 = add nsw i32 %312, 1
  store i32 %313, ptr %38, align 4
  %314 = load i32, ptr %34, align 4
  %315 = icmp slt i32 %313, %314
  br i1 %315, label %182, label %316, !llvm.loop !47

316:                                              ; preds = %311
  %317 = load ptr, ptr %25, align 8
  %318 = ptrtoint ptr %317 to i64
  %319 = load i32, ptr %24, align 4
  %320 = sext i32 %319 to i64
  %321 = add nsw i64 %318, %320
  %322 = inttoptr i64 %321 to ptr
  store ptr %322, ptr %25, align 8
  %323 = load i32, ptr %31, align 4
  %324 = load ptr, ptr %30, align 8
  %325 = sext i32 %323 to i64
  %326 = getelementptr inbounds i8, ptr %324, i64 %325
  store ptr %326, ptr %30, align 8
  br label %327

327:                                              ; preds = %316
  %328 = load i32, ptr %35, align 4
  %329 = add nsw i32 %328, -1
  store i32 %329, ptr %35, align 4
  %330 = icmp sgt i32 %329, 0
  br i1 %330, label %181, label %331, !llvm.loop !48

331:                                              ; preds = %327
  br label %332

332:                                              ; preds = %331, %158, %74
  %333 = load i32, ptr %23, align 4
  %334 = add nsw i32 %333, 1
  store i32 %334, ptr %23, align 4
  br label %61, !llvm.loop !49

335:                                              ; preds = %61
  ret void
}