; Function Attrs: nofree norecurse nosync nounwind memory(readwrite, inaccessiblemem: none) uwtable
define hidden void @Ushort555RgbxDrawGlyphListAA(ptr nocapture noundef readonly %0, ptr nocapture noundef readonly %1, i32 noundef %2, i32 noundef %3, i32 noundef %4, i32 noundef %5, i32 noundef %6, i32 noundef %7, i32 noundef %8, ptr nocapture readnone %9, ptr nocapture readnone %10) #1 {
  %12 = icmp sgt i32 %2, 0
  br i1 %12, label %.lr.ph, label %._crit_edge

.lr.ph:                                           ; preds = %11
  %13 = lshr i32 %4, 16
  %14 = and i32 %13, 255
  %15 = lshr i32 %4, 8
  %16 = and i32 %15, 255
  %17 = and i32 %4, 255
  %18 = getelementptr inbounds i8, ptr %0, i64 32
  %19 = load i32, ptr %18, align 8
  %20 = getelementptr inbounds i8, ptr %0, i64 16
  %21 = sext i32 %19 to i64
  %22 = trunc i32 %3 to i16
  %23 = zext nneg i32 %14 to i64
  %24 = zext nneg i32 %16 to i64
  %25 = zext nneg i32 %17 to i64
  %wide.trip.count130 = zext nneg i32 %2 to i64
  br label %26

26:                                               ; preds = %.lr.ph, %.loopexit
  %indvars.iv127 = phi i64 [ 0, %.lr.ph ], [ %indvars.iv.next128, %.loopexit ]
  %27 = getelementptr inbounds %struct.ImageRef, ptr %1, i64 %indvars.iv127
  %28 = getelementptr inbounds i8, ptr %27, i64 8
  %29 = load ptr, ptr %28, align 8
  %.not = icmp eq ptr %29, null
  br i1 %.not, label %.loopexit, label %30

30:                                               ; preds = %26
  %31 = getelementptr inbounds i8, ptr %27, i64 32
  %32 = load i32, ptr %31, align 8
  %33 = getelementptr inbounds i8, ptr %27, i64 36
  %34 = load i32, ptr %33, align 4
  %35 = getelementptr inbounds i8, ptr %27, i64 24
  %36 = load i32, ptr %35, align 8
  %37 = getelementptr inbounds i8, ptr %27, i64 28
  %38 = load i32, ptr %37, align 4
  %39 = add nsw i32 %36, %32
  %40 = add nsw i32 %38, %34
  %.0100 = tail call i32 @llvm.smax.i32(i32 %32, i32 %5)
  %.0101 = tail call i32 @llvm.smax.i32(i32 %34, i32 %6)
  %.0104 = tail call i32 @llvm.smin.i32(i32 %39, i32 %7)
  %.0103 = tail call i32 @llvm.smin.i32(i32 %40, i32 %8)
  %.not120 = icmp sgt i32 %.0104, %.0100
  %.not121 = icmp sgt i32 %.0103, %.0101
  %or.cond = select i1 %.not120, i1 %.not121, i1 false
  br i1 %or.cond, label %41, label %.loopexit

41:                                               ; preds = %30
  %42 = getelementptr inbounds i8, ptr %27, i64 16
  %43 = load i32, ptr %42, align 8
  %44 = icmp slt i32 %34, %6
  %45 = icmp slt i32 %32, %5
  %46 = sub nsw i32 %5, %32
  %narrow = select i1 %45, i32 %46, i32 0
  %.099.idx = sext i32 %narrow to i64
  %.099 = getelementptr inbounds i8, ptr %29, i64 %.099.idx
  %47 = sub nsw i32 %6, %34
  %48 = mul nsw i32 %47, %43
  %narrow124 = select i1 %44, i32 %48, i32 0
  %.1.idx = sext i32 %narrow124 to i64
  %.1 = getelementptr inbounds i8, ptr %.099, i64 %.1.idx
  %49 = sub i32 %.0104, %.0100
  %50 = sub nsw i32 %.0103, %.0101
  %51 = load ptr, ptr %20, align 8
  %52 = ptrtoint ptr %51 to i64
  %53 = sext i32 %.0101 to i64
  %54 = mul nsw i64 %53, %21
  %55 = sext i32 %.0100 to i64
  %56 = shl nsw i64 %55, 1
  %57 = add nsw i64 %54, %56
  %58 = add nsw i64 %57, %52
  %59 = sext i32 %43 to i64
  %smax = tail call i32 @llvm.smax.i32(i32 %49, i32 1)
  %wide.trip.count = zext nneg i32 %smax to i64
  br label %60

60:                                               ; preds = %120, %41
  %.0105 = phi i32 [ %50, %41 ], [ %123, %120 ]
  %.2 = phi ptr [ %.1, %41 ], [ %122, %120 ]
  %.098.in = phi i64 [ %58, %41 ], [ %121, %120 ]
  %.098 = inttoptr i64 %.098.in to ptr
  br label %61

61:                                               ; preds = %119, %60
  %indvars.iv = phi i64 [ %indvars.iv.next, %119 ], [ 0, %60 ]
  %62 = getelementptr inbounds i8, ptr %.2, i64 %indvars.iv
  %63 = load i8, ptr %62, align 1
  switch i8 %63, label %64 [
    i8 0, label %119
    i8 -1, label %117
  ]

64:                                               ; preds = %61
  %65 = xor i8 %63, -1
  %66 = getelementptr inbounds i16, ptr %.098, i64 %indvars.iv
  %67 = load i16, ptr %66, align 2
  %68 = zext i16 %67 to i32
  %69 = lshr i32 %68, 8
  %70 = and i32 %69, 248
  %71 = lshr i32 %68, 13
  %72 = or disjoint i32 %70, %71
  %73 = lshr i32 %68, 6
  %74 = and i32 %73, 31
  %75 = shl nuw nsw i32 %74, 3
  %76 = lshr i32 %74, 2
  %77 = or disjoint i32 %75, %76
  %78 = lshr i32 %68, 1
  %79 = and i32 %78, 31
  %80 = shl nuw nsw i32 %79, 3
  %81 = lshr i32 %79, 2
  %82 = or disjoint i32 %80, %81
  %83 = zext i8 %65 to i64
  %84 = zext nneg i32 %72 to i64
  %85 = getelementptr inbounds [256 x [256 x i8]], ptr @mul8table, i64 0, i64 %83, i64 %84
  %86 = load i8, ptr %85, align 1
  %87 = zext i8 %86 to i16
  %88 = zext i8 %63 to i64
  %89 = getelementptr inbounds [256 x [256 x i8]], ptr @mul8table, i64 0, i64 %88, i64 %23
  %90 = load i8, ptr %89, align 1
  %91 = zext i8 %90 to i16
  %92 = add nuw nsw i16 %91, %87
  %93 = zext nneg i32 %77 to i64
  %94 = getelementptr inbounds [256 x [256 x i8]], ptr @mul8table, i64 0, i64 %83, i64 %93
  %95 = load i8, ptr %94, align 1
  %96 = zext i8 %95 to i16
  %97 = getelementptr inbounds [256 x [256 x i8]], ptr @mul8table, i64 0, i64 %88, i64 %24
  %98 = load i8, ptr %97, align 1
  %99 = zext i8 %98 to i16
  %100 = add nuw nsw i16 %99, %96
  %101 = zext nneg i32 %82 to i64
  %102 = getelementptr inbounds [256 x [256 x i8]], ptr @mul8table, i64 0, i64 %83, i64 %101
  %103 = load i8, ptr %102, align 1
  %104 = zext i8 %103 to i16
  %105 = getelementptr inbounds [256 x [256 x i8]], ptr @mul8table, i64 0, i64 %88, i64 %25
  %106 = load i8, ptr %105, align 1
  %107 = zext i8 %106 to i16
  %108 = add nuw nsw i16 %107, %104
  %109 = shl i16 %92, 8
  %110 = and i16 %109, -2048
  %111 = shl nuw nsw i16 %100, 3
  %112 = and i16 %111, 4032
  %113 = or i16 %112, %110
  %114 = lshr i16 %108, 2
  %115 = and i16 %114, 126
  %116 = or i16 %113, %115
  store i16 %116, ptr %66, align 2
  br label %119

117:                                              ; preds = %61
  %118 = getelementptr inbounds i16, ptr %.098, i64 %indvars.iv
  store i16 %22, ptr %118, align 2
  br label %119

119:                                              ; preds = %61, %64, %117
  %indvars.iv.next = add nuw nsw i64 %indvars.iv, 1
  %exitcond.not = icmp eq i64 %indvars.iv.next, %wide.trip.count
  br i1 %exitcond.not, label %120, label %61, !llvm.loop !43

120:                                              ; preds = %119
  %121 = add nsw i64 %.098.in, %21
  %122 = getelementptr inbounds i8, ptr %.2, i64 %59
  %123 = add nsw i32 %.0105, -1
  %124 = icmp sgt i32 %.0105, 1
  br i1 %124, label %60, label %.loopexit, !llvm.loop !44

.loopexit:                                        ; preds = %120, %30, %26
  %indvars.iv.next128 = add nuw nsw i64 %indvars.iv127, 1
  %exitcond131.not = icmp eq i64 %indvars.iv.next128, %wide.trip.count130
  br i1 %exitcond131.not, label %._crit_edge, label %26, !llvm.loop !45

._crit_edge:                                      ; preds = %.loopexit, %11
  ret void
}